; Function Attrs: nounwind sspstrong uwtable
define internal i32 @wkmap_cmp(i64 noundef %0, i64 noundef %1) #0 {
  %3 = inttoptr i64 %0 to ptr
  %4 = load i64, ptr %3, align 8, !tbaa !7
  %5 = inttoptr i64 %1 to ptr
  %6 = load i64, ptr %5, align 8, !tbaa !7
  %7 = icmp ne i64 %4, 36
  %8 = icmp ne i64 %6, 36
  %or.cond = select i1 %7, i1 %8, i1 false
  br i1 %or.cond, label %9, label %11

9:                                                ; preds = %2
  %10 = tail call i32 @rb_any_cmp(i64 noundef %4, i64 noundef %6) #10
  br label %11

11:                                               ; preds = %2, %9
  %.0 = phi i32 [ %10, %9 ], [ 1, %2 ]
  ret i32 %.0
}